target datalayout = "e-m:e-p270:32:32-p271:32:32-p272:64:64-i64:64-i128:128-f80:128-n8:16:32:64-S128"
target triple = "x86_64-pc-linux-gnu"

; Function Attrs: nounwind uwtable
define internal void @uu_encode(ptr noundef %0, ptr noundef %1, i64 noundef %2) #0 {
  %4 = alloca ptr, align 8
  %5 = alloca ptr, align 8
  %6 = alloca i64, align 8
  %7 = alloca i32, align 4
  store ptr %0, ptr %4, align 8, !tbaa !52
  store ptr %1, ptr %5, align 8, !tbaa !40
  store i64 %2, ptr %6, align 8, !tbaa !33
  call void @llvm.lifetime.start.p0(i64 4, ptr %7) #7
  %8 = load i64, ptr %6, align 8, !tbaa !33
  %9 = trunc i64 %8 to i32
  store i32 %9, ptr %7, align 4, !tbaa !13
  %10 = load ptr, ptr %4, align 8, !tbaa !52
  %11 = load i32, ptr %7, align 4, !tbaa !13
  %12 = icmp ne i32 %11, 0
  br i1 %12, label %13, label %16

13:                                               ; preds = %3
  %14 = load i32, ptr %7, align 4, !tbaa !13
  %15 = add nsw i32 %14, 32
  br label %17

16:                                               ; preds = %3
  br label %17

17:                                               ; preds = %16, %13
  %18 = phi i32 [ %15, %13 ], [ 96, %16 ]
  %19 = trunc i32 %18 to i8
  %20 = call ptr @archive_strappend_char(ptr noundef %10, i8 noundef signext %19)
  br label %21

21:                                               ; preds = %105, %17
  %22 = load i64, ptr %6, align 8, !tbaa !33
  %23 = icmp uge i64 %22, 3
  br i1 %23, label %24, label %110

24:                                               ; preds = %21
  %25 = load ptr, ptr %5, align 8, !tbaa !40
  %26 = getelementptr inbounds i8, ptr %25, i64 0
  %27 = load i8, ptr %26, align 1, !tbaa !43
  %28 = zext i8 %27 to i32
  %29 = ashr i32 %28, 2
  store i32 %29, ptr %7, align 4, !tbaa !13
  %30 = load ptr, ptr %4, align 8, !tbaa !52
  %31 = load i32, ptr %7, align 4, !tbaa !13
  %32 = icmp ne i32 %31, 0
  br i1 %32, label %33, label %36

33:                                               ; preds = %24
  %34 = load i32, ptr %7, align 4, !tbaa !13
  %35 = add nsw i32 %34, 32
  br label %37

36:                                               ; preds = %24
  br label %37

37:                                               ; preds = %36, %33
  %38 = phi i32 [ %35, %33 ], [ 96, %36 ]
  %39 = trunc i32 %38 to i8
  %40 = call ptr @archive_strappend_char(ptr noundef %30, i8 noundef signext %39)
  %41 = load ptr, ptr %5, align 8, !tbaa !40
  %42 = getelementptr inbounds i8, ptr %41, i64 0
  %43 = load i8, ptr %42, align 1, !tbaa !43
  %44 = zext i8 %43 to i32
  %45 = and i32 %44, 3
  %46 = shl i32 %45, 4
  %47 = load ptr, ptr %5, align 8, !tbaa !40
  %48 = getelementptr inbounds i8, ptr %47, i64 1
  %49 = load i8, ptr %48, align 1, !tbaa !43
  %50 = zext i8 %49 to i32
  %51 = and i32 %50, 240
  %52 = ashr i32 %51, 4
  %53 = or i32 %46, %52
  store i32 %53, ptr %7, align 4, !tbaa !13
  %54 = load ptr, ptr %4, align 8, !tbaa !52
  %55 = load i32, ptr %7, align 4, !tbaa !13
  %56 = icmp ne i32 %55, 0
  br i1 %56, label %57, label %60

57:                                               ; preds = %37
  %58 = load i32, ptr %7, align 4, !tbaa !13
  %59 = add nsw i32 %58, 32
  br label %61

60:                                               ; preds = %37
  br label %61

61:                                               ; preds = %60, %57
  %62 = phi i32 [ %59, %57 ], [ 96, %60 ]
  %63 = trunc i32 %62 to i8
  %64 = call ptr @archive_strappend_char(ptr noundef %54, i8 noundef signext %63)
  %65 = load ptr, ptr %5, align 8, !tbaa !40
  %66 = getelementptr inbounds i8, ptr %65, i64 1
  %67 = load i8, ptr %66, align 1, !tbaa !43
  %68 = zext i8 %67 to i32
  %69 = and i32 %68, 15
  %70 = shl i32 %69, 2
  %71 = load ptr, ptr %5, align 8, !tbaa !40
  %72 = getelementptr inbounds i8, ptr %71, i64 2
  %73 = load i8, ptr %72, align 1, !tbaa !43
  %74 = zext i8 %73 to i32
  %75 = and i32 %74, 192
  %76 = ashr i32 %75, 6
  %77 = or i32 %70, %76
  store i32 %77, ptr %7, align 4, !tbaa !13
  %78 = load ptr, ptr %4, align 8, !tbaa !52
  %79 = load i32, ptr %7, align 4, !tbaa !13
  %80 = icmp ne i32 %79, 0
  br i1 %80, label %81, label %84

81:                                               ; preds = %61
  %82 = load i32, ptr %7, align 4, !tbaa !13
  %83 = add nsw i32 %82, 32
  br label %85

84:                                               ; preds = %61
  br label %85

85:                                               ; preds = %84, %81
  %86 = phi i32 [ %83, %81 ], [ 96, %84 ]
  %87 = trunc i32 %86 to i8
  %88 = call ptr @archive_strappend_char(ptr noundef %78, i8 noundef signext %87)
  %89 = load ptr, ptr %5, align 8, !tbaa !40
  %90 = getelementptr inbounds i8, ptr %89, i64 2
  %91 = load i8, ptr %90, align 1, !tbaa !43
  %92 = zext i8 %91 to i32
  %93 = and i32 %92, 63
  store i32 %93, ptr %7, align 4, !tbaa !13
  %94 = load ptr, ptr %4, align 8, !tbaa !52
  %95 = load i32, ptr %7, align 4, !tbaa !13
  %96 = icmp ne i32 %95, 0
  br i1 %96, label %97, label %100

97:                                               ; preds = %85
  %98 = load i32, ptr %7, align 4, !tbaa !13
  %99 = add nsw i32 %98, 32
  br label %101

100:                                              ; preds = %85
  br label %101

101:                                              ; preds = %100, %97
  %102 = phi i32 [ %99, %97 ], [ 96, %100 ]
  %103 = trunc i32 %102 to i8
  %104 = call ptr @archive_strappend_char(ptr noundef %94, i8 noundef signext %103)
  br label %105

105:                                              ; preds = %101
  %106 = load ptr, ptr %5, align 8, !tbaa !40
  %107 = getelementptr inbounds i8, ptr %106, i64 3
  store ptr %107, ptr %5, align 8, !tbaa !40
  %108 = load i64, ptr %6, align 8, !tbaa !33
  %109 = sub i64 %108, 3
  store i64 %109, ptr %6, align 8, !tbaa !33
  br label %21, !llvm.loop !54

110:                                              ; preds = %21
  %111 = load i64, ptr %6, align 8, !tbaa !33
  %112 = icmp ugt i64 %111, 0
  br i1 %112, label %113, label %194

113:                                              ; preds = %110
  %114 = load ptr, ptr %5, align 8, !tbaa !40
  %115 = getelementptr inbounds i8, ptr %114, i64 0
  %116 = load i8, ptr %115, align 1, !tbaa !43
  %117 = zext i8 %116 to i32
  %118 = ashr i32 %117, 2
  store i32 %118, ptr %7, align 4, !tbaa !13
  %119 = load ptr, ptr %4, align 8, !tbaa !52
  %120 = load i32, ptr %7, align 4, !tbaa !13
  %121 = icmp ne i32 %120, 0
  br i1 %121, label %122, label %125

122:                                              ; preds = %113
  %123 = load i32, ptr %7, align 4, !tbaa !13
  %124 = add nsw i32 %123, 32
  br label %126

125:                                              ; preds = %113
  br label %126

126:                                              ; preds = %125, %122
  %127 = phi i32 [ %124, %122 ], [ 96, %125 ]
  %128 = trunc i32 %127 to i8
  %129 = call ptr @archive_strappend_char(ptr noundef %119, i8 noundef signext %128)
  %130 = load ptr, ptr %5, align 8, !tbaa !40
  %131 = getelementptr inbounds i8, ptr %130, i64 0
  %132 = load i8, ptr %131, align 1, !tbaa !43
  %133 = zext i8 %132 to i32
  %134 = and i32 %133, 3
  %135 = shl i32 %134, 4
  store i32 %135, ptr %7, align 4, !tbaa !13
  %136 = load i64, ptr %6, align 8, !tbaa !33
  %137 = icmp eq i64 %136, 1
  br i1 %137, label %138, label %154

138:                                              ; preds = %126
  %139 = load ptr, ptr %4, align 8, !tbaa !52
  %140 = load i32, ptr %7, align 4, !tbaa !13
  %141 = icmp ne i32 %140, 0
  br i1 %141, label %142, label %145

142:                                              ; preds = %138
  %143 = load i32, ptr %7, align 4, !tbaa !13
  %144 = add nsw i32 %143, 32
  br label %146

145:                                              ; preds = %138
  br label %146

146:                                              ; preds = %145, %142
  %147 = phi i32 [ %144, %142 ], [ 96, %145 ]
  %148 = trunc i32 %147 to i8
  %149 = call ptr @archive_strappend_char(ptr noundef %139, i8 noundef signext %148)
  %150 = load ptr, ptr %4, align 8, !tbaa !52
  %151 = call ptr @archive_strappend_char(ptr noundef %150, i8 noundef signext 96)
  %152 = load ptr, ptr %4, align 8, !tbaa !52
  %153 = call ptr @archive_strappend_char(ptr noundef %152, i8 noundef signext 96)
  br label %193

154:                                              ; preds = %126
  %155 = load ptr, ptr %5, align 8, !tbaa !40
  %156 = getelementptr inbounds i8, ptr %155, i64 1
  %157 = load i8, ptr %156, align 1, !tbaa !43
  %158 = zext i8 %157 to i32
  %159 = and i32 %158, 240
  %160 = ashr i32 %159, 4
  %161 = load i32, ptr %7, align 4, !tbaa !13
  %162 = or i32 %161, %160
  store i32 %162, ptr %7, align 4, !tbaa !13
  %163 = load ptr, ptr %4, align 8, !tbaa !52
  %164 = load i32, ptr %7, align 4, !tbaa !13
  %165 = icmp ne i32 %164, 0
  br i1 %165, label %166, label %169

166:                                              ; preds = %154
  %167 = load i32, ptr %7, align 4, !tbaa !13
  %168 = add nsw i32 %167, 32
  br label %170

169:                                              ; preds = %154
  br label %170

170:                                              ; preds = %169, %166
  %171 = phi i32 [ %168, %166 ], [ 96, %169 ]
  %172 = trunc i32 %171 to i8
  %173 = call ptr @archive_strappend_char(ptr noundef %163, i8 noundef signext %172)
  %174 = load ptr, ptr %5, align 8, !tbaa !40
  %175 = getelementptr inbounds i8, ptr %174, i64 1
  %176 = load i8, ptr %175, align 1, !tbaa !43
  %177 = zext i8 %176 to i32
  %178 = and i32 %177, 15
  %179 = shl i32 %178, 2
  store i32 %179, ptr %7, align 4, !tbaa !13
  %180 = load ptr, ptr %4, align 8, !tbaa !52
  %181 = load i32, ptr %7, align 4, !tbaa !13
  %182 = icmp ne i32 %181, 0
  br i1 %182, label %183, label %186

183:                                              ; preds = %170
  %184 = load i32, ptr %7, align 4, !tbaa !13
  %185 = add nsw i32 %184, 32
  br label %187

186:                                              ; preds = %170
  br label %187

187:                                              ; preds = %186, %183
  %188 = phi i32 [ %185, %183 ], [ 96, %186 ]
  %189 = trunc i32 %188 to i8
  %190 = call ptr @archive_strappend_char(ptr noundef %180, i8 noundef signext %189)
  %191 = load ptr, ptr %4, align 8, !tbaa !52
  %192 = call ptr @archive_strappend_char(ptr noundef %191, i8 noundef signext 96)
  br label %193

193:                                              ; preds = %187, %146
  br label %194

194:                                              ; preds = %193, %110
  %195 = load ptr, ptr %4, align 8, !tbaa !52
  %196 = call ptr @archive_strappend_char(ptr noundef %195, i8 noundef signext 10)
  call void @llvm.lifetime.end.p0(i64 4, ptr %7) #7
  ret void
}