; Function Attrs: nounwind uwtable
define internal fastcc void @uu_encode(ptr noundef %0, ptr noundef readonly captures(none) %1, i64 noundef range(i64 1, 0) %2) unnamed_addr #0 {
  %4 = and i64 %2, 4294967295
  %.not = icmp eq i64 %4, 0
  %5 = trunc i64 %2 to i8
  %6 = add i8 %5, 32
  %7 = select i1 %.not, i8 96, i8 %6
  %8 = tail call ptr @archive_strappend_char(ptr noundef %0, i8 noundef signext %7) #6
  %9 = icmp ugt i64 %2, 2
  br i1 %9, label %.lr.ph, label %._crit_edge.thread

.lr.ph:                                           ; preds = %3, %.lr.ph
  %.073 = phi i64 [ %33, %.lr.ph ], [ %2, %3 ]
  %.04772 = phi ptr [ %32, %.lr.ph ], [ %1, %3 ]
  %10 = load i8, ptr %.04772, align 1, !tbaa !31
  %11 = lshr i8 %10, 2
  %.not60 = icmp ult i8 %10, 4
  %narrow61 = add nuw nsw i8 %11, 32
  %narrow62 = select i1 %.not60, i8 96, i8 %narrow61
  %12 = tail call ptr @archive_strappend_char(ptr noundef %0, i8 noundef signext %narrow62) #6
  %13 = load i8, ptr %.04772, align 1, !tbaa !31
  %14 = shl i8 %13, 4
  %15 = and i8 %14, 48
  %16 = getelementptr inbounds nuw i8, ptr %.04772, i64 1
  %17 = load i8, ptr %16, align 1, !tbaa !31
  %18 = lshr i8 %17, 4
  %19 = or disjoint i8 %15, %18
  %.not63 = icmp eq i8 %19, 0
  %narrow64 = add nuw nsw i8 %19, 32
  %narrow65 = select i1 %.not63, i8 96, i8 %narrow64
  %20 = tail call ptr @archive_strappend_char(ptr noundef %0, i8 noundef signext %narrow65) #6
  %21 = load i8, ptr %16, align 1, !tbaa !31
  %22 = shl i8 %21, 2
  %23 = and i8 %22, 60
  %24 = getelementptr inbounds nuw i8, ptr %.04772, i64 2
  %25 = load i8, ptr %24, align 1, !tbaa !31
  %26 = lshr i8 %25, 6
  %27 = or disjoint i8 %23, %26
  %.not66 = icmp eq i8 %27, 0
  %narrow67 = add nuw nsw i8 %27, 32
  %narrow68 = select i1 %.not66, i8 96, i8 %narrow67
  %28 = tail call ptr @archive_strappend_char(ptr noundef %0, i8 noundef signext %narrow68) #6
  %29 = load i8, ptr %24, align 1, !tbaa !31
  %30 = and i8 %29, 63
  %.not69 = icmp eq i8 %30, 0
  %narrow70 = add nuw nsw i8 %30, 32
  %narrow71 = select i1 %.not69, i8 96, i8 %narrow70
  %31 = tail call ptr @archive_strappend_char(ptr noundef %0, i8 noundef signext %narrow71) #6
  %32 = getelementptr inbounds nuw i8, ptr %.04772, i64 3
  %33 = add i64 %.073, -3
  %34 = icmp ugt i64 %33, 2
  br i1 %34, label %.lr.ph, label %._crit_edge, !llvm.loop !42

._crit_edge:                                      ; preds = %.lr.ph
  %.not48 = icmp eq i64 %33, 0
  br i1 %.not48, label %55, label %._crit_edge.thread

._crit_edge.thread:                               ; preds = %3, %._crit_edge
  %.0.lcssa80 = phi i64 [ %33, %._crit_edge ], [ %2, %3 ]
  %.047.lcssa79 = phi ptr [ %32, %._crit_edge ], [ %1, %3 ]
  %35 = load i8, ptr %.047.lcssa79, align 1, !tbaa !31
  %36 = lshr i8 %35, 2
  %.not49 = icmp ult i8 %35, 4
  %narrow = add nuw nsw i8 %36, 32
  %narrow50 = select i1 %.not49, i8 96, i8 %narrow
  %37 = tail call ptr @archive_strappend_char(ptr noundef %0, i8 noundef signext %narrow50) #6
  %38 = load i8, ptr %.047.lcssa79, align 1, !tbaa !31
  %39 = shl i8 %38, 4
  %40 = and i8 %39, 48
  %41 = icmp eq i64 %.0.lcssa80, 1
  br i1 %41, label %42, label %44

42:                                               ; preds = %._crit_edge.thread
  %.not57 = icmp eq i8 %40, 0
  %narrow58 = add nuw nsw i8 %40, 32
  %narrow59 = select i1 %.not57, i8 96, i8 %narrow58
  %43 = tail call ptr @archive_strappend_char(ptr noundef %0, i8 noundef signext %narrow59) #6
  br label %.sink.split

44:                                               ; preds = %._crit_edge.thread
  %45 = getelementptr inbounds nuw i8, ptr %.047.lcssa79, i64 1
  %46 = load i8, ptr %45, align 1, !tbaa !31
  %47 = lshr i8 %46, 4
  %48 = or disjoint i8 %47, %40
  %.not51 = icmp eq i8 %48, 0
  %narrow52 = add nuw nsw i8 %48, 32
  %narrow53 = select i1 %.not51, i8 96, i8 %narrow52
  %49 = tail call ptr @archive_strappend_char(ptr noundef %0, i8 noundef signext %narrow53) #6
  %50 = load i8, ptr %45, align 1, !tbaa !31
  %51 = shl i8 %50, 2
  %52 = and i8 %51, 60
  %.not54 = icmp eq i8 %52, 0
  %narrow55 = add nuw nsw i8 %52, 32
  %narrow56 = select i1 %.not54, i8 96, i8 %narrow55
  br label %.sink.split

.sink.split:                                      ; preds = %44, %42
  %.sink = phi i8 [ 96, %42 ], [ %narrow56, %44 ]
  %53 = tail call ptr @archive_strappend_char(ptr noundef %0, i8 noundef signext %.sink) #6
  %54 = tail call ptr @archive_strappend_char(ptr noundef %0, i8 noundef signext 96) #6
  br label %55

55:                                               ; preds = %.sink.split, %._crit_edge
  %56 = tail call ptr @archive_strappend_char(ptr noundef %0, i8 noundef signext 10) #6
  ret void
}